; Function Attrs: mustprogress uwtable
define dso_local void @_ZN7cmState31AddUnexpectedFlowControlCommandERKNSt7__cxx1112basic_stringIcSt11char_traitsIcESaIcEEEPKc(ptr noundef nonnull align 8 dereferenceable(705) %0, ptr noundef nonnull align 8 dereferenceable(32) %1, ptr noundef %2) local_unnamed_addr #5 align 2 {
  %4 = alloca %"struct.std::__detail::_AllocNode", align 8
  %5 = getelementptr inbounds nuw i8, ptr %0, i64 184
  call void @llvm.lifetime.start.p0(i64 8, ptr nonnull %4) #32
  store ptr %5, ptr %4, align 8, !tbaa !221
  %6 = call { ptr, i8 } @_ZNSt10_HashtableINSt7__cxx1112basic_stringIcSt11char_traitsIcESaIcEEES5_SaIS5_ENSt8__detail9_IdentityESt8equal_toIS5_ESt4hashIS5_ENS7_18_Mod_range_hashingENS7_20_Default_ranged_hashENS7_20_Prime_rehash_policyENS7_17_Hashtable_traitsILb1ELb1ELb1EEEE16_M_insert_uniqueIRKS5_SL_NS7_10_AllocNodeISaINS7_10_Hash_nodeIS5_Lb1EEEEEEEESt4pairINS7_14_Node_iteratorIS5_Lb1ELb1EEEbEOT_OT0_RKT1_(ptr noundef nonnull align 8 dereferenceable(56) %5, ptr noundef nonnull align 8 dereferenceable(32) %1, ptr noundef nonnull align 8 dereferenceable(32) %1, ptr noundef nonnull align 8 dereferenceable(8) %4)
  call void @llvm.lifetime.end.p0(i64 8, ptr nonnull %4) #32
  call void @_ZN7cmState20AddUnexpectedCommandERKNSt7__cxx1112basic_stringIcSt11char_traitsIcESaIcEEEPKc(ptr noundef nonnull align 8 dereferenceable(705) %0, ptr noundef nonnull align 8 dereferenceable(32) %1, ptr noundef %2)
  ret void
}